target datalayout = "e-m:e-p270:32:32-p271:32:32-p272:64:64-i64:64-i128:128-f80:128-n8:16:32:64-S128"
target triple = "x86_64-pc-linux-gnu"

%struct.PROC_HDR = type { ptr, ptr, ptr, ptr, i32, %struct.dlist_head, %struct.dlist_head, %struct.dlist_head, %struct.dlist_head, %struct.pg_atomic_uint32, %struct.pg_atomic_uint32, i32, i32, i32, i32 }
%struct.dlist_head = type { %struct.dlist_node }
%struct.dlist_node = type { ptr, ptr }
%struct.pg_atomic_uint32 = type { i32 }
%struct.PGPROC = type { %struct.dlist_node, ptr, ptr, i32, %struct.Latch, i32, i32, i32, i32, %struct.anon, i32, i32, i32, i8, i8, i8, i8, %struct.proclist_node, %struct.proclist_node, ptr, ptr, i32, i32, %struct.pg_atomic_uint64, i32, i8, i64, i32, %struct.dlist_node, [16 x %struct.dlist_head], %struct.XidCacheStatus, %struct.XidCache, i8, %struct.pg_atomic_uint32, i32, i32, i8, %struct.pg_atomic_uint32, i32, i32, i64, i64, %struct.LWLock, ptr, ptr, i8, i32, ptr, %struct.dlist_head, %struct.dlist_node }
%struct.Latch = type { i32, i32, i8, i32 }
%struct.anon = type { i32, i32 }
%struct.proclist_node = type { i32, i32 }
%struct.pg_atomic_uint64 = type { i64 }
%struct.XidCacheStatus = type { i8, i8 }
%struct.XidCache = type { [64 x i32] }
%struct.LWLock = type { i16, %struct.pg_atomic_uint32, %struct.proclist_head }
%struct.proclist_head = type { i32, i32 }

@MyProc = dso_local global ptr null, align 8
@ProcGlobal = dso_local global ptr null, align 8
@AuxiliaryProcs = internal global ptr null, align 8
@ProcStructLock = internal global ptr null, align 8
@.str.2 = private unnamed_addr constant [7 x i8] c"proc.c\00", align 1
@MyProcNumber = external global i32, align 4
@.str.22 = private unnamed_addr constant [44 x i8] c"AuxiliaryProcKill() called in child process\00", align 1
@__func__.AuxiliaryProcKill = private unnamed_addr constant [18 x i8] c"AuxiliaryProcKill\00", align 1

; Function Attrs: inlinehint nounwind uwtable
define internal i32 @tas(ptr noundef %0) #3 {
  %2 = alloca ptr, align 8
  %3 = alloca i8, align 1
  store ptr %0, ptr %2, align 8
  call void @llvm.lifetime.start.p0(i64 1, ptr %3) #10
  store i8 1, ptr %3, align 1
  %4 = load i8, ptr %3, align 1
  %5 = load ptr, ptr %2, align 8
  %6 = call i8 asm sideeffect "\09lock\09\09\09\0A\09xchgb\09$0,$1\09\0A", "=q,=*m,0,*m,~{memory},~{cc},~{dirflag},~{fpsr},~{flags}"(ptr elementtype(i8) %5, i8 %4, ptr elementtype(i8) %5) #10, !srcloc !17
  store i8 %6, ptr %3, align 1
  %7 = load i8, ptr %3, align 1
  %8 = zext i8 %7 to i32
  call void @llvm.lifetime.end.p0(i64 1, ptr %3) #10
  ret i32 %8
}

; Function Attrs: inlinehint nounwind uwtable
define internal i32 @DatumGetInt32(i64 noundef %0) #3 {
  %2 = alloca i64, align 8
  store i64 %0, ptr %2, align 8
  %3 = load i64, ptr %2, align 8
  %4 = trunc i64 %3 to i32
  ret i32 %4
}

; Function Attrs: nounwind uwtable
define internal void @AuxiliaryProcKill(i32 noundef %0, i64 noundef %1) #0 {
  %3 = alloca i32, align 4
  %4 = alloca i64, align 8
  %5 = alloca i32, align 4
  %6 = alloca ptr, align 8
  %7 = alloca ptr, align 8
  store i32 %0, ptr %3, align 4
  store i64 %1, ptr %4, align 8
  call void @llvm.lifetime.start.p0(i64 4, ptr %5) #10
  %8 = load i64, ptr %4, align 8
  %9 = call i32 @DatumGetInt32(i64 noundef %8)
  store i32 %9, ptr %5, align 4
  call void @llvm.lifetime.start.p0(i64 8, ptr %6) #10
  call void @llvm.lifetime.start.p0(i64 8, ptr %7) #10
  %10 = load ptr, ptr @MyProc, align 8
  %11 = getelementptr inbounds nuw %struct.PGPROC, ptr %10, i32 0, i32 7
  %12 = load i32, ptr %11, align 4
  %13 = call i32 @getpid() #10
  %14 = icmp ne i32 %12, %13
  br i1 %14, label %15, label %26

15:                                               ; preds = %2
  br label %16

16:                                               ; preds = %15
  br i1 true, label %17, label %19

17:                                               ; preds = %16
  %18 = call zeroext i1 @errstart_cold(i32 noundef 23, ptr noundef null) #11
  br i1 %18, label %21, label %23

19:                                               ; preds = %16
  %20 = call zeroext i1 @errstart(i32 noundef 23, ptr noundef null)
  br i1 %20, label %21, label %23

21:                                               ; preds = %19, %17
  %22 = call i32 (ptr, ...) @errmsg_internal(ptr noundef @.str.22)
  call void @errfinish(ptr noundef @.str.2, i32 noundef 999, ptr noundef @__func__.AuxiliaryProcKill)
  br label %23

23:                                               ; preds = %21, %19, %17
  unreachable

24:                                               ; No predecessors!
  br label %25

25:                                               ; preds = %24
  br label %26

26:                                               ; preds = %25, %2
  %27 = load ptr, ptr @AuxiliaryProcs, align 8
  %28 = load i32, ptr %5, align 4
  %29 = sext i32 %28 to i64
  %30 = getelementptr inbounds %struct.PGPROC, ptr %27, i64 %29
  store ptr %30, ptr %6, align 8
  call void @LWLockReleaseAll()
  %31 = call zeroext i1 @ConditionVariableCancelSleep()
  call void @SwitchBackToLocalLatch()
  call void @pgstat_reset_wait_event_storage()
  %32 = load ptr, ptr @MyProc, align 8
  store ptr %32, ptr %7, align 8
  store ptr null, ptr @MyProc, align 8
  store i32 -1, ptr @MyProcNumber, align 4
  %33 = load ptr, ptr %7, align 8
  %34 = getelementptr inbounds nuw %struct.PGPROC, ptr %33, i32 0, i32 4
  call void @DisownLatch(ptr noundef %34)
  %35 = load ptr, ptr @ProcStructLock, align 8
  %36 = call i32 @tas(ptr noundef %35)
  %37 = icmp ne i32 %36, 0
  br i1 %37, label %38, label %41

38:                                               ; preds = %26
  %39 = load ptr, ptr @ProcStructLock, align 8
  %40 = call i32 @s_lock(ptr noundef %39, ptr noundef @.str.2, i32 noundef 1020, ptr noundef @__func__.AuxiliaryProcKill)
  br label %42

41:                                               ; preds = %26
  br label %42

42:                                               ; preds = %41, %38
  %43 = load ptr, ptr %7, align 8
  %44 = getelementptr inbounds nuw %struct.PGPROC, ptr %43, i32 0, i32 7
  store i32 0, ptr %44, align 4
  %45 = load ptr, ptr %7, align 8
  %46 = getelementptr inbounds nuw %struct.PGPROC, ptr %45, i32 0, i32 9
  %47 = getelementptr inbounds nuw %struct.anon, ptr %46, i32 0, i32 0
  store i32 -1, ptr %47, align 4
  %48 = load ptr, ptr %7, align 8
  %49 = getelementptr inbounds nuw %struct.PGPROC, ptr %48, i32 0, i32 9
  %50 = getelementptr inbounds nuw %struct.anon, ptr %49, i32 0, i32 1
  store i32 0, ptr %50, align 4
  %51 = load ptr, ptr @ProcGlobal, align 8
  %52 = getelementptr inbounds nuw %struct.PROC_HDR, ptr %51, i32 0, i32 13
  %53 = load i32, ptr %52, align 8
  %54 = call i32 @update_spins_per_delay(i32 noundef %53)
  %55 = load ptr, ptr @ProcGlobal, align 8
  %56 = getelementptr inbounds nuw %struct.PROC_HDR, ptr %55, i32 0, i32 13
  store i32 %54, ptr %56, align 8
  br label %57

57:                                               ; preds = %42
  call void asm sideeffect "", "~{memory},~{dirflag},~{fpsr},~{flags}"() #10, !srcloc !23
  %58 = load ptr, ptr @ProcStructLock, align 8
  store i8 0, ptr %58, align 1
  br label %59

59:                                               ; preds = %57
  br label %60

60:                                               ; preds = %59
  call void @llvm.lifetime.end.p0(i64 8, ptr %7) #10
  call void @llvm.lifetime.end.p0(i64 8, ptr %6) #10
  call void @llvm.lifetime.end.p0(i64 4, ptr %5) #10
  ret void
}