; Function Attrs: nounwind uwtable
define internal void @AuxiliaryProcKill(i32 %0, i64 %1) #0 {
  %3 = load ptr, ptr @MyProc, align 8
  %4 = getelementptr inbounds nuw i8, ptr %3, i64 60
  %5 = load i32, ptr %4, align 4
  %6 = tail call i32 @getpid() #14
  %.not = icmp eq i32 %5, %6
  br i1 %.not, label %10, label %7

7:                                                ; preds = %2
  %8 = tail call zeroext i1 @errstart_cold(i32 noundef 23, ptr noundef null) #15
  tail call void @llvm.assume(i1 %8)
  %9 = tail call i32 (ptr, ...) @errmsg_internal(ptr noundef nonnull @.str.22) #14
  tail call void @errfinish(ptr noundef nonnull @.str.2, i32 noundef 999, ptr noundef nonnull @__func__.AuxiliaryProcKill) #14
  unreachable

10:                                               ; preds = %2
  tail call void @LWLockReleaseAll() #14
  %11 = tail call zeroext i1 @ConditionVariableCancelSleep() #14
  tail call void @SwitchBackToLocalLatch() #14
  tail call void @pgstat_reset_wait_event_storage() #14
  %12 = load ptr, ptr @MyProc, align 8
  store ptr null, ptr @MyProc, align 8
  store i32 -1, ptr @MyProcNumber, align 4
  %13 = getelementptr inbounds nuw i8, ptr %12, i64 36
  tail call void @DisownLatch(ptr noundef nonnull %13) #14
  %14 = load ptr, ptr @ProcStructLock, align 8
  %15 = tail call i8 asm sideeffect "\09lock\09\09\09\0A\09xchgb\09$0,$1\09\0A", "=q,=*m,0,*m,~{memory},~{cc},~{dirflag},~{fpsr},~{flags}"(ptr elementtype(i8) %14, i8 1, ptr elementtype(i8) %14) #14, !srcloc !10
  %.not5 = icmp eq i8 %15, 0
  br i1 %.not5, label %19, label %16

16:                                               ; preds = %10
  %17 = load ptr, ptr @ProcStructLock, align 8
  %18 = tail call i32 @s_lock(ptr noundef %17, ptr noundef nonnull @.str.2, i32 noundef 1020, ptr noundef nonnull @__func__.AuxiliaryProcKill) #14
  br label %19

19:                                               ; preds = %10, %16
  %20 = getelementptr inbounds nuw i8, ptr %12, i64 60
  store i32 0, ptr %20, align 4
  %21 = getelementptr inbounds nuw i8, ptr %12, i64 68
  store i32 -1, ptr %21, align 4
  %22 = getelementptr inbounds nuw i8, ptr %12, i64 72
  store i32 0, ptr %22, align 4
  %23 = load ptr, ptr @ProcGlobal, align 8
  %24 = getelementptr inbounds nuw i8, ptr %23, i64 120
  %25 = load i32, ptr %24, align 8
  %26 = tail call i32 @update_spins_per_delay(i32 noundef %25) #14
  %27 = load ptr, ptr @ProcGlobal, align 8
  %28 = getelementptr inbounds nuw i8, ptr %27, i64 120
  store i32 %26, ptr %28, align 8
  tail call void asm sideeffect "", "~{memory},~{dirflag},~{fpsr},~{flags}"() #14, !srcloc !18
  %29 = load ptr, ptr @ProcStructLock, align 8
  store i8 0, ptr %29, align 1
  ret void
}